target datalayout = "e-m:e-p270:32:32-p271:32:32-p272:64:64-i64:64-i128:128-f80:128-n8:16:32:64-S128"
target triple = "x86_64-pc-linux-gnu"

%struct.evhttp_connection = type { %struct.anon, ptr, %struct.event, ptr, i16, ptr, i16, ptr, i64, i64, i32, %struct.timeval, %struct.timeval, %struct.timeval, i32, i32, %struct.timeval, i32, ptr, %struct.evcon_requestq, ptr, ptr, ptr, ptr, %struct.event_callback, ptr, ptr, i32, ptr }
%struct.anon = type { ptr, ptr }
%struct.event = type { %struct.event_callback, %union.anon.1, i32, i16, i16, ptr, %union.anon.3, %struct.timeval }
%union.anon.1 = type { %struct.anon.2 }
%struct.anon.2 = type { ptr, ptr }
%union.anon.3 = type { %struct.anon.4 }
%struct.anon.4 = type { %struct.anon.5, %struct.timeval }
%struct.anon.5 = type { ptr, ptr }
%struct.timeval = type { i64, i64 }
%struct.evcon_requestq = type { ptr, ptr }
%struct.event_callback = type { %struct.anon.0, i16, i8, i8, %union.anon, ptr }
%struct.anon.0 = type { ptr, ptr }
%union.anon = type { ptr }

; Function Attrs: nounwind uwtable
define internal i32 @evhttp_connected(ptr noundef %0) #0 {
  %2 = alloca i32, align 4
  %3 = alloca ptr, align 8
  store ptr %0, ptr %3, align 8
  %4 = load ptr, ptr %3, align 8
  %5 = getelementptr inbounds nuw %struct.evhttp_connection, ptr %4, i32 0, i32 17
  %6 = load i32, ptr %5, align 8
  switch i32 %6, label %9 [
    i32 0, label %7
    i32 1, label %7
    i32 2, label %8
    i32 3, label %8
    i32 4, label %8
    i32 5, label %8
    i32 6, label %8
    i32 7, label %8
  ]

7:                                                ; preds = %1, %1
  store i32 0, ptr %2, align 4
  br label %10

8:                                                ; preds = %1, %1, %1, %1, %1, %1
  br label %9

9:                                                ; preds = %1, %8
  store i32 1, ptr %2, align 4
  br label %10

10:                                               ; preds = %9, %7
  %11 = load i32, ptr %2, align 4
  ret i32 %11
}

; Function Attrs: nounwind uwtable
define internal void @evhttp_connection_reset_hard_(ptr noundef %0) #0 {
  %2 = alloca ptr, align 8
  %3 = alloca ptr, align 8
  %4 = alloca i32, align 4
  store ptr %0, ptr %2, align 8
  call void @llvm.lifetime.start.p0(i64 8, ptr %3) #11
  call void @llvm.lifetime.start.p0(i64 4, ptr %4) #11
  %5 = load ptr, ptr %2, align 8
  %6 = getelementptr inbounds nuw %struct.evhttp_connection, ptr %5, i32 0, i32 1
  %7 = load ptr, ptr %6, align 8
  %8 = call i32 @bufferevent_disable_hard_(ptr noundef %7, i16 noundef signext 6)
  %9 = load ptr, ptr %2, align 8
  %10 = call i32 @evhttp_connected(ptr noundef %9)
  %11 = icmp ne i32 %10, 0
  br i1 %11, label %12, label %25

12:                                               ; preds = %1
  %13 = load ptr, ptr %2, align 8
  %14 = getelementptr inbounds nuw %struct.evhttp_connection, ptr %13, i32 0, i32 22
  %15 = load ptr, ptr %14, align 8
  %16 = icmp ne ptr %15, null
  br i1 %16, label %17, label %25

17:                                               ; preds = %12
  %18 = load ptr, ptr %2, align 8
  %19 = getelementptr inbounds nuw %struct.evhttp_connection, ptr %18, i32 0, i32 22
  %20 = load ptr, ptr %19, align 8
  %21 = load ptr, ptr %2, align 8
  %22 = load ptr, ptr %2, align 8
  %23 = getelementptr inbounds nuw %struct.evhttp_connection, ptr %22, i32 0, i32 23
  %24 = load ptr, ptr %23, align 8
  call void %20(ptr noundef %21, ptr noundef %24)
  br label %25

25:                                               ; preds = %17, %12, %1
  %26 = load ptr, ptr %2, align 8
  %27 = getelementptr inbounds nuw %struct.evhttp_connection, ptr %26, i32 0, i32 1
  %28 = load ptr, ptr %27, align 8
  %29 = call i32 @bufferevent_replacefd(ptr noundef %28, i32 noundef -1)
  store i32 %29, ptr %4, align 4
  br label %30

30:                                               ; preds = %25
  br label %31

31:                                               ; preds = %30
  br label %32

32:                                               ; preds = %31
  %33 = load ptr, ptr %2, align 8
  %34 = getelementptr inbounds nuw %struct.evhttp_connection, ptr %33, i32 0, i32 1
  %35 = load ptr, ptr %34, align 8
  %36 = call ptr @bufferevent_get_output(ptr noundef %35)
  store ptr %36, ptr %3, align 8
  %37 = load ptr, ptr %3, align 8
  %38 = call i32 @evbuffer_drain(ptr noundef %37, i64 noundef -1)
  store i32 %38, ptr %4, align 4
  br label %39

39:                                               ; preds = %32
  br label %40

40:                                               ; preds = %39
  br label %41

41:                                               ; preds = %40
  %42 = load ptr, ptr %2, align 8
  %43 = getelementptr inbounds nuw %struct.evhttp_connection, ptr %42, i32 0, i32 1
  %44 = load ptr, ptr %43, align 8
  %45 = call ptr @bufferevent_get_input(ptr noundef %44)
  store ptr %45, ptr %3, align 8
  %46 = load ptr, ptr %3, align 8
  %47 = call i32 @evbuffer_drain(ptr noundef %46, i64 noundef -1)
  store i32 %47, ptr %4, align 4
  br label %48

48:                                               ; preds = %41
  br label %49

49:                                               ; preds = %48
  br label %50

50:                                               ; preds = %49
  call void @llvm.lifetime.end.p0(i64 4, ptr %4) #11
  call void @llvm.lifetime.end.p0(i64 8, ptr %3) #11
  ret void
}

; Function Attrs: nounwind uwtable
define hidden void @evhttp_connection_reset_(ptr noundef %0, i32 noundef %1) #0 {
  %3 = alloca ptr, align 8
  %4 = alloca i32, align 4
  store ptr %0, ptr %3, align 8
  store i32 %1, ptr %4, align 4
  %5 = load ptr, ptr %3, align 8
  %6 = getelementptr inbounds nuw %struct.evhttp_connection, ptr %5, i32 0, i32 1
  %7 = load ptr, ptr %6, align 8
  call void @bufferevent_setcb(ptr noundef %7, ptr noundef null, ptr noundef null, ptr noundef null, ptr noundef null)
  %8 = load i32, ptr %4, align 4
  %9 = icmp ne i32 %8, 0
  br i1 %9, label %10, label %12

10:                                               ; preds = %2
  %11 = load ptr, ptr %3, align 8
  call void @evhttp_connection_reset_hard_(ptr noundef %11)
  br label %12

12:                                               ; preds = %10, %2
  %13 = load ptr, ptr %3, align 8
  %14 = getelementptr inbounds nuw %struct.evhttp_connection, ptr %13, i32 0, i32 10
  %15 = load i32, ptr %14, align 8
  %16 = and i32 %15, -2097153
  store i32 %16, ptr %14, align 8
  %17 = load ptr, ptr %3, align 8
  %18 = getelementptr inbounds nuw %struct.evhttp_connection, ptr %17, i32 0, i32 17
  store i32 0, ptr %18, align 8
  ret void
}