; Function Attrs: nounwind uwtable
define hidden void @evhttp_connection_reset_(ptr noundef %0, i32 noundef %1) local_unnamed_addr #0 {
  %3 = getelementptr inbounds nuw i8, ptr %0, i64 16
  %4 = load ptr, ptr %3, align 8
  tail call void @bufferevent_setcb(ptr noundef %4, ptr noundef null, ptr noundef null, ptr noundef null, ptr noundef null) #18
  %.not = icmp eq i32 %1, 0
  br i1 %.not, label %23, label %5

5:                                                ; preds = %2
  %6 = load ptr, ptr %3, align 8
  %7 = tail call i32 @bufferevent_disable_hard_(ptr noundef %6, i16 noundef signext 6) #18
  %8 = getelementptr i8, ptr %0, i64 280
  %.val.i = load i32, ptr %8, align 8
  %switch.i.i = icmp ult i32 %.val.i, 2
  br i1 %switch.i.i, label %evhttp_connection_reset_hard_.exit, label %9

9:                                                ; preds = %5
  %10 = getelementptr inbounds nuw i8, ptr %0, i64 328
  %11 = load ptr, ptr %10, align 8
  %.not11.i = icmp eq ptr %11, null
  br i1 %.not11.i, label %evhttp_connection_reset_hard_.exit, label %12

12:                                               ; preds = %9
  %13 = getelementptr inbounds nuw i8, ptr %0, i64 336
  %14 = load ptr, ptr %13, align 8
  tail call void %11(ptr noundef nonnull %0, ptr noundef %14) #18
  br label %evhttp_connection_reset_hard_.exit

evhttp_connection_reset_hard_.exit:               ; preds = %5, %9, %12
  %15 = load ptr, ptr %3, align 8
  %16 = tail call i32 @bufferevent_replacefd(ptr noundef %15, i32 noundef -1) #18
  %17 = load ptr, ptr %3, align 8
  %18 = tail call ptr @bufferevent_get_output(ptr noundef %17) #18
  %19 = tail call i32 @evbuffer_drain(ptr noundef %18, i64 noundef -1) #18
  %20 = load ptr, ptr %3, align 8
  %21 = tail call ptr @bufferevent_get_input(ptr noundef %20) #18
  %22 = tail call i32 @evbuffer_drain(ptr noundef %21, i64 noundef -1) #18
  br label %23

23:                                               ; preds = %evhttp_connection_reset_hard_.exit, %2
  %24 = getelementptr inbounds nuw i8, ptr %0, i64 200
  %25 = load i32, ptr %24, align 8
  %26 = and i32 %25, -2097153
  store i32 %26, ptr %24, align 8
  %27 = getelementptr inbounds nuw i8, ptr %0, i64 280
  store i32 0, ptr %27, align 8
  ret void
}